; Function Attrs: mustprogress uwtable
define void @_ZN11LayerDialog18updateColumnNumberEPK15QTreeWidgetItem(ptr nocapture noundef nonnull readonly align 8 dereferenceable(256) %0, ptr nocapture noundef readonly %1) local_unnamed_addr #9 align 2 {
  %3 = getelementptr inbounds i8, ptr %1, i64 16
  %4 = load ptr, ptr %3, align 8
  %5 = getelementptr inbounds i8, ptr %4, i64 4
  %6 = load i32, ptr %5, align 4
  %7 = getelementptr inbounds i8, ptr %0, i64 48
  %8 = load ptr, ptr %7, align 8
  %9 = getelementptr inbounds i8, ptr %8, i64 16
  %10 = load ptr, ptr %9, align 8
  %11 = tail call noundef i32 @_ZNK11QTreeWidget11columnCountEv(ptr noundef nonnull align 8 dereferenceable(48) %10)
  %12 = icmp sgt i32 %6, %11
  br i1 %12, label %13, label %17

13:                                               ; preds = %2
  %14 = load ptr, ptr %7, align 8
  %15 = getelementptr inbounds i8, ptr %14, i64 16
  %16 = load ptr, ptr %15, align 8
  tail call void @_ZN11QTreeWidget14setColumnCountEi(ptr noundef nonnull align 8 dereferenceable(48) %16, i32 noundef %6)
  br label %17

17:                                               ; preds = %13, %2
  ret void
}